target datalayout = "e-m:e-p270:32:32-p271:32:32-p272:64:64-i64:64-i128:128-f80:128-n8:16:32:64-S128"
target triple = "x86_64-pc-linux-gnu"

%struct._dom_lexbor_libxml2_bridge_application_data = type { ptr, ptr, ptr, i64, i64, %struct._dom_line_column_cache, i8 }
%struct._dom_line_column_cache = type { i64, i64, i64 }
%struct._lexbor_libxml2_bridge_parse_context = type { ptr, ptr, %struct._lexbor_libxml2_bridge_extracted_observations, ptr }
%struct._lexbor_libxml2_bridge_extracted_observations = type { i8, i8, i8 }

; Function Attrs: nounwind uwtable
define internal void @dom_find_line_and_column_using_cache(ptr noundef %0, ptr noundef %1, i64 noundef %2) #0 {
  %4 = alloca ptr, align 8
  %5 = alloca ptr, align 8
  %6 = alloca i64, align 8
  %7 = alloca i8, align 1
  store ptr %0, ptr %4, align 8
  store ptr %1, ptr %5, align 8
  store i64 %2, ptr %6, align 8
  %8 = load ptr, ptr %4, align 8
  %9 = getelementptr inbounds %struct._dom_lexbor_libxml2_bridge_application_data, ptr %8, i32 0, i32 4
  %10 = load i64, ptr %9, align 8
  %11 = load i64, ptr %6, align 8
  %12 = sub i64 %11, %10
  store i64 %12, ptr %6, align 8
  %13 = load i64, ptr %6, align 8
  %14 = load ptr, ptr %4, align 8
  %15 = getelementptr inbounds %struct._dom_lexbor_libxml2_bridge_application_data, ptr %14, i32 0, i32 3
  %16 = load i64, ptr %15, align 8
  %17 = icmp ugt i64 %13, %16
  br i1 %17, label %18, label %22

18:                                               ; preds = %3
  %19 = load ptr, ptr %4, align 8
  %20 = getelementptr inbounds %struct._dom_lexbor_libxml2_bridge_application_data, ptr %19, i32 0, i32 3
  %21 = load i64, ptr %20, align 8
  store i64 %21, ptr %6, align 8
  br label %22

22:                                               ; preds = %18, %3
  %23 = load ptr, ptr %4, align 8
  %24 = getelementptr inbounds %struct._dom_lexbor_libxml2_bridge_application_data, ptr %23, i32 0, i32 1
  %25 = load ptr, ptr %24, align 8
  %26 = icmp ne ptr %25, null
  br i1 %26, label %27, label %62

27:                                               ; preds = %22
  br label %28

28:                                               ; preds = %56, %27
  %29 = load ptr, ptr %5, align 8
  %30 = getelementptr inbounds %struct._dom_line_column_cache, ptr %29, i32 0, i32 2
  %31 = load i64, ptr %30, align 8
  %32 = load i64, ptr %6, align 8
  %33 = icmp ult i64 %31, %32
  br i1 %33, label %34, label %61

34:                                               ; preds = %28
  %35 = load ptr, ptr %4, align 8
  %36 = getelementptr inbounds %struct._dom_lexbor_libxml2_bridge_application_data, ptr %35, i32 0, i32 1
  %37 = load ptr, ptr %36, align 8
  %38 = load ptr, ptr %5, align 8
  %39 = getelementptr inbounds %struct._dom_line_column_cache, ptr %38, i32 0, i32 2
  %40 = load i64, ptr %39, align 8
  %41 = getelementptr inbounds i32, ptr %37, i64 %40
  %42 = load i32, ptr %41, align 4
  %43 = icmp eq i32 %42, 10
  br i1 %43, label %44, label %51

44:                                               ; preds = %34
  %45 = load ptr, ptr %5, align 8
  %46 = getelementptr inbounds %struct._dom_line_column_cache, ptr %45, i32 0, i32 0
  %47 = load i64, ptr %46, align 8
  %48 = add i64 %47, 1
  store i64 %48, ptr %46, align 8
  %49 = load ptr, ptr %5, align 8
  %50 = getelementptr inbounds %struct._dom_line_column_cache, ptr %49, i32 0, i32 1
  store i64 1, ptr %50, align 8
  br label %56

51:                                               ; preds = %34
  %52 = load ptr, ptr %5, align 8
  %53 = getelementptr inbounds %struct._dom_line_column_cache, ptr %52, i32 0, i32 1
  %54 = load i64, ptr %53, align 8
  %55 = add i64 %54, 1
  store i64 %55, ptr %53, align 8
  br label %56

56:                                               ; preds = %51, %44
  %57 = load ptr, ptr %5, align 8
  %58 = getelementptr inbounds %struct._dom_line_column_cache, ptr %57, i32 0, i32 2
  %59 = load i64, ptr %58, align 8
  %60 = add i64 %59, 1
  store i64 %60, ptr %58, align 8
  br label %28

61:                                               ; preds = %28
  br label %109

62:                                               ; preds = %22
  br label %63

63:                                               ; preds = %107, %62
  %64 = load ptr, ptr %5, align 8
  %65 = getelementptr inbounds %struct._dom_line_column_cache, ptr %64, i32 0, i32 2
  %66 = load i64, ptr %65, align 8
  %67 = load i64, ptr %6, align 8
  %68 = icmp ult i64 %66, %67
  br i1 %68, label %69, label %108

69:                                               ; preds = %63
  %70 = load ptr, ptr %4, align 8
  %71 = getelementptr inbounds %struct._dom_lexbor_libxml2_bridge_application_data, ptr %70, i32 0, i32 2
  %72 = load ptr, ptr %71, align 8
  %73 = load ptr, ptr %5, align 8
  %74 = getelementptr inbounds %struct._dom_line_column_cache, ptr %73, i32 0, i32 2
  %75 = load i64, ptr %74, align 8
  %76 = getelementptr inbounds i8, ptr %72, i64 %75
  %77 = load i8, ptr %76, align 1
  store i8 %77, ptr %7, align 1
  %78 = load i8, ptr %7, align 1
  %79 = zext i8 %78 to i32
  %80 = icmp eq i32 %79, 10
  br i1 %80, label %81, label %92

81:                                               ; preds = %69
  %82 = load ptr, ptr %5, align 8
  %83 = getelementptr inbounds %struct._dom_line_column_cache, ptr %82, i32 0, i32 0
  %84 = load i64, ptr %83, align 8
  %85 = add i64 %84, 1
  store i64 %85, ptr %83, align 8
  %86 = load ptr, ptr %5, align 8
  %87 = getelementptr inbounds %struct._dom_line_column_cache, ptr %86, i32 0, i32 1
  store i64 1, ptr %87, align 8
  %88 = load ptr, ptr %5, align 8
  %89 = getelementptr inbounds %struct._dom_line_column_cache, ptr %88, i32 0, i32 2
  %90 = load i64, ptr %89, align 8
  %91 = add i64 %90, 1
  store i64 %91, ptr %89, align 8
  br label %107

92:                                               ; preds = %69
  %93 = load i8, ptr %7, align 1
  %94 = zext i8 %93 to i32
  %95 = and i32 %94, 192
  %96 = icmp ne i32 %95, 128
  br i1 %96, label %97, label %102

97:                                               ; preds = %92
  %98 = load ptr, ptr %5, align 8
  %99 = getelementptr inbounds %struct._dom_line_column_cache, ptr %98, i32 0, i32 1
  %100 = load i64, ptr %99, align 8
  %101 = add i64 %100, 1
  store i64 %101, ptr %99, align 8
  br label %102

102:                                              ; preds = %97, %92
  %103 = load ptr, ptr %5, align 8
  %104 = getelementptr inbounds %struct._dom_line_column_cache, ptr %103, i32 0, i32 2
  %105 = load i64, ptr %104, align 8
  %106 = add i64 %105, 1
  store i64 %106, ptr %104, align 8
  br label %107

107:                                              ; preds = %102, %81
  br label %63

108:                                              ; preds = %63
  br label %109

109:                                              ; preds = %108, %61
  ret void
}

; Function Attrs: nounwind uwtable
define internal zeroext i1 @dom_process_parse_chunk(ptr noundef %0, ptr noundef %1, ptr noundef %2, i64 noundef %3, ptr noundef %4, i64 noundef %5, ptr noundef %6, ptr noundef %7) #0 {
  %9 = alloca i1, align 1
  %10 = alloca ptr, align 8
  %11 = alloca ptr, align 8
  %12 = alloca ptr, align 8
  %13 = alloca i64, align 8
  %14 = alloca ptr, align 8
  %15 = alloca i64, align 8
  %16 = alloca ptr, align 8
  %17 = alloca ptr, align 8
  %18 = alloca ptr, align 8
  %19 = alloca i32, align 4
  store ptr %0, ptr %10, align 8
  store ptr %1, ptr %11, align 8
  store ptr %2, ptr %12, align 8
  store i64 %3, ptr %13, align 8
  store ptr %4, ptr %14, align 8
  store i64 %5, ptr %15, align 8
  store ptr %6, ptr %16, align 8
  store ptr %7, ptr %17, align 8
  %20 = load ptr, ptr %10, align 8
  %21 = getelementptr inbounds %struct._lexbor_libxml2_bridge_parse_context, ptr %20, i32 0, i32 3
  %22 = load ptr, ptr %21, align 8
  store ptr %22, ptr %18, align 8
  %23 = load i64, ptr %15, align 8
  %24 = load ptr, ptr %18, align 8
  %25 = getelementptr inbounds %struct._dom_lexbor_libxml2_bridge_application_data, ptr %24, i32 0, i32 3
  store i64 %23, ptr %25, align 8
  %26 = load ptr, ptr %11, align 8
  %27 = load ptr, ptr %14, align 8
  %28 = load i64, ptr %13, align 8
  %29 = call i32 @lxb_html_document_parse_chunk(ptr noundef %26, ptr noundef %27, i64 noundef %28)
  store i32 %29, ptr %19, align 4
  %30 = load i32, ptr %19, align 4
  %31 = icmp ne i32 %30, 0
  %32 = xor i1 %31, true
  %33 = xor i1 %32, true
  %34 = zext i1 %33 to i32
  %35 = sext i32 %34 to i64
  %36 = icmp ne i64 %35, 0
  br i1 %36, label %37, label %38

37:                                               ; preds = %8
  store i1 false, ptr %9, align 1
  br label %74

38:                                               ; preds = %8
  %39 = load ptr, ptr %10, align 8
  %40 = getelementptr inbounds %struct._lexbor_libxml2_bridge_parse_context, ptr %39, i32 0, i32 0
  %41 = load ptr, ptr %40, align 8
  %42 = icmp ne ptr %41, null
  br i1 %42, label %48, label %43

43:                                               ; preds = %38
  %44 = load ptr, ptr %10, align 8
  %45 = getelementptr inbounds %struct._lexbor_libxml2_bridge_parse_context, ptr %44, i32 0, i32 1
  %46 = load ptr, ptr %45, align 8
  %47 = icmp ne ptr %46, null
  br i1 %47, label %48, label %65

48:                                               ; preds = %43, %38
  %49 = load ptr, ptr %10, align 8
  %50 = load ptr, ptr %12, align 8
  %51 = load ptr, ptr %14, align 8
  %52 = load ptr, ptr %18, align 8
  %53 = getelementptr inbounds %struct._dom_lexbor_libxml2_bridge_application_data, ptr %52, i32 0, i32 4
  %54 = load i64, ptr %53, align 8
  %55 = load ptr, ptr %16, align 8
  %56 = load ptr, ptr %17, align 8
  call void @lexbor_libxml2_bridge_report_errors(ptr noundef %49, ptr noundef %50, ptr noundef %51, i64 noundef %54, ptr noundef %55, ptr noundef %56)
  %57 = load ptr, ptr %18, align 8
  %58 = load ptr, ptr %18, align 8
  %59 = getelementptr inbounds %struct._dom_lexbor_libxml2_bridge_application_data, ptr %58, i32 0, i32 5
  %60 = load ptr, ptr %18, align 8
  %61 = getelementptr inbounds %struct._dom_lexbor_libxml2_bridge_application_data, ptr %60, i32 0, i32 4
  %62 = load i64, ptr %61, align 8
  %63 = load i64, ptr %15, align 8
  %64 = add i64 %62, %63
  call void @dom_find_line_and_column_using_cache(ptr noundef %57, ptr noundef %59, i64 noundef %64)
  br label %65

65:                                               ; preds = %48, %43
  %66 = load i64, ptr %15, align 8
  %67 = load ptr, ptr %18, align 8
  %68 = getelementptr inbounds %struct._dom_lexbor_libxml2_bridge_application_data, ptr %67, i32 0, i32 4
  %69 = load i64, ptr %68, align 8
  %70 = add i64 %69, %66
  store i64 %70, ptr %68, align 8
  %71 = load ptr, ptr %18, align 8
  %72 = getelementptr inbounds %struct._dom_lexbor_libxml2_bridge_application_data, ptr %71, i32 0, i32 5
  %73 = getelementptr inbounds %struct._dom_line_column_cache, ptr %72, i32 0, i32 2
  store i64 0, ptr %73, align 8
  store i1 true, ptr %9, align 1
  br label %74

74:                                               ; preds = %65, %37
  %75 = load i1, ptr %9, align 1
  ret i1 %75
}