; Function Attrs: nounwind uwtable
define internal fastcc noundef zeroext i1 @dom_process_parse_chunk(ptr noundef %0, ptr noundef %1, ptr noundef %2, i64 noundef %3, ptr noundef %4, i64 noundef %5, ptr noundef %6, ptr noundef %7) unnamed_addr #0 {
  %9 = getelementptr inbounds i8, ptr %0, i64 24
  %10 = load ptr, ptr %9, align 8
  %11 = getelementptr inbounds i8, ptr %10, i64 24
  store i64 %5, ptr %11, align 8
  %12 = tail call i32 @lxb_html_document_parse_chunk(ptr noundef %1, ptr noundef %4, i64 noundef %3) #11
  %.not = icmp eq i32 %12, 0
  br i1 %.not, label %13, label %60

13:                                               ; preds = %8
  %14 = load ptr, ptr %0, align 8
  %.not22 = icmp eq ptr %14, null
  br i1 %.not22, label %15, label %18

15:                                               ; preds = %13
  %16 = getelementptr inbounds i8, ptr %0, i64 8
  %17 = load ptr, ptr %16, align 8
  %.not23 = icmp eq ptr %17, null
  br i1 %.not23, label %dom_find_line_and_column_using_cache.exit, label %18

18:                                               ; preds = %15, %13
  %19 = getelementptr inbounds i8, ptr %10, i64 32
  %20 = load i64, ptr %19, align 8
  tail call void @lexbor_libxml2_bridge_report_errors(ptr noundef nonnull %0, ptr noundef %2, ptr noundef %4, i64 noundef %20, ptr noundef %6, ptr noundef %7) #11
  %21 = getelementptr inbounds i8, ptr %10, i64 40
  %22 = load i64, ptr %11, align 8
  %spec.select.i = tail call i64 @llvm.umin.i64(i64 %5, i64 %22)
  %23 = getelementptr inbounds i8, ptr %10, i64 8
  %24 = load ptr, ptr %23, align 8
  %.not.i = icmp eq ptr %24, null
  %25 = getelementptr inbounds i8, ptr %10, i64 56
  %.promoted.i = load i64, ptr %25, align 8
  %26 = icmp ult i64 %.promoted.i, %spec.select.i
  br i1 %.not.i, label %.preheader.i, label %.preheader30.i

.preheader30.i:                                   ; preds = %18
  br i1 %26, label %.lr.ph.i, label %dom_find_line_and_column_using_cache.exit

.lr.ph.i:                                         ; preds = %.preheader30.i
  %27 = getelementptr inbounds i8, ptr %10, i64 48
  %.promoted = load i64, ptr %27, align 8
  br label %30

.preheader.i:                                     ; preds = %18
  br i1 %26, label %.lr.ph34.i, label %dom_find_line_and_column_using_cache.exit

.lr.ph34.i:                                       ; preds = %.preheader.i
  %28 = getelementptr inbounds i8, ptr %10, i64 16
  %29 = getelementptr inbounds i8, ptr %10, i64 48
  %.pre = load ptr, ptr %28, align 8
  br label %43

30:                                               ; preds = %41, %.lr.ph.i
  %31 = phi i64 [ %.promoted, %.lr.ph.i ], [ %storemerge37.i, %41 ]
  %32 = phi i64 [ %.promoted.i, %.lr.ph.i ], [ %42, %41 ]
  %33 = getelementptr inbounds i32, ptr %24, i64 %32
  %34 = load i32, ptr %33, align 4
  %35 = icmp eq i32 %34, 10
  br i1 %35, label %36, label %39

36:                                               ; preds = %30
  %37 = load i64, ptr %21, align 8
  %38 = add i64 %37, 1
  store i64 %38, ptr %21, align 8
  br label %41

39:                                               ; preds = %30
  %40 = add i64 %31, 1
  br label %41

41:                                               ; preds = %39, %36
  %storemerge37.i = phi i64 [ %40, %39 ], [ 1, %36 ]
  store i64 %storemerge37.i, ptr %27, align 8
  %42 = add nuw i64 %32, 1
  store i64 %42, ptr %25, align 8
  %exitcond.not.i = icmp eq i64 %42, %spec.select.i
  br i1 %exitcond.not.i, label %dom_find_line_and_column_using_cache.exit, label %30

43:                                               ; preds = %55, %.lr.ph34.i
  %storemerge3233.i = phi i64 [ %.promoted.i, %.lr.ph34.i ], [ %storemerge.i, %55 ]
  %44 = getelementptr inbounds i8, ptr %.pre, i64 %storemerge3233.i
  %45 = load i8, ptr %44, align 1
  %46 = icmp eq i8 %45, 10
  br i1 %46, label %47, label %50

47:                                               ; preds = %43
  %48 = load i64, ptr %21, align 8
  %49 = add i64 %48, 1
  store i64 %49, ptr %21, align 8
  br label %.sink.split.i

50:                                               ; preds = %43
  %51 = and i8 %45, -64
  %.not29.i = icmp eq i8 %51, -128
  br i1 %.not29.i, label %55, label %52

52:                                               ; preds = %50
  %53 = load i64, ptr %29, align 8
  %54 = add i64 %53, 1
  br label %.sink.split.i

.sink.split.i:                                    ; preds = %52, %47
  %.sink.i = phi i64 [ %54, %52 ], [ 1, %47 ]
  store i64 %.sink.i, ptr %29, align 8
  br label %55

55:                                               ; preds = %.sink.split.i, %50
  %storemerge.i = add nuw i64 %storemerge3233.i, 1
  store i64 %storemerge.i, ptr %25, align 8
  %exitcond36.not.i = icmp eq i64 %storemerge.i, %spec.select.i
  br i1 %exitcond36.not.i, label %dom_find_line_and_column_using_cache.exit, label %43

dom_find_line_and_column_using_cache.exit:        ; preds = %41, %55, %.preheader.i, %.preheader30.i, %15
  %56 = getelementptr inbounds i8, ptr %10, i64 32
  %57 = load i64, ptr %56, align 8
  %58 = add i64 %57, %5
  store i64 %58, ptr %56, align 8
  %59 = getelementptr inbounds i8, ptr %10, i64 56
  store i64 0, ptr %59, align 8
  br label %60

60:                                               ; preds = %8, %dom_find_line_and_column_using_cache.exit
  ret i1 %.not
}